; Function Attrs: mustprogress uwtable
define void @_ZN15TCPStreamDialog40on_graphTypeComboBox_currentIndexChangedEi(ptr noundef nonnull align 8 dereferenceable(584) %0, i32 noundef %1) local_unnamed_addr #2 align 2 personality ptr @__gxx_personality_v0 {
  %3 = alloca %class.QVariant, align 8
  %4 = icmp slt i32 %1, 0
  br i1 %4, label %13, label %5

5:                                                ; preds = %2
  %6 = getelementptr inbounds i8, ptr %0, i64 64
  %7 = load ptr, ptr %6, align 8
  %8 = getelementptr inbounds i8, ptr %7, i64 264
  %9 = load ptr, ptr %8, align 8
  call void @_ZNK9QComboBox8itemDataEii(ptr dead_on_unwind nonnull writable sret(%class.QVariant) align 8 %3, ptr noundef nonnull align 8 dereferenceable(40) %9, i32 noundef %1, i32 noundef 256)
  %10 = invoke noundef i32 @_ZNK8QVariant5toIntEPb(ptr noundef nonnull align 8 dereferenceable(32) %3, ptr noundef null)
          to label %11 unwind label %14

11:                                               ; preds = %5
  %12 = getelementptr inbounds i8, ptr %0, i64 128
  store i32 %10, ptr %12, align 8
  call void @_ZN8QVariantD1Ev(ptr noundef nonnull align 8 dereferenceable(32) %3) #24
  call void @_ZN15TCPStreamDialog23showWidgetsForGraphTypeEv(ptr noundef nonnull align 8 dereferenceable(584) %0)
  call void @_ZN15TCPStreamDialog9fillGraphEbb(ptr noundef nonnull align 8 dereferenceable(584) %0, i1 noundef zeroext true, i1 noundef zeroext false)
  br label %13

13:                                               ; preds = %2, %11
  ret void

14:                                               ; preds = %5
  %15 = landingpad { ptr, i32 }
          cleanup
  call void @_ZN8QVariantD1Ev(ptr noundef nonnull align 8 dereferenceable(32) %3) #24
  resume { ptr, i32 } %15
}